; Function Attrs: mustprogress noreturn uwtable
define internal fastcc void @"_ZZN4pbrt5parseEPNS_12ParserTargetESt10unique_ptrINS_9TokenizerESt14default_deleteIS3_EEENK3$_5clERKNS_5TokenE"(ptr noundef nonnull align 8 dereferenceable(40) %t) unnamed_addr #4 align 2 personality ptr @__gxx_personality_v0 {
entry:
  %ref.tmp.i = alloca %"class.std::allocator", align 1
  %ref.tmp = alloca %"class.std::__cxx11::basic_string", align 8
  %agg.tmp.sroa.0.0.copyload = load i64, ptr %t, align 8
  %agg.tmp.sroa.2.0.token.sroa_idx = getelementptr inbounds i8, ptr %t, i64 8
  %agg.tmp.sroa.2.0.copyload = load ptr, ptr %agg.tmp.sroa.2.0.token.sroa_idx, align 8
  call void @llvm.lifetime.start.p0(i64 1, ptr nonnull %ref.tmp.i)
  call void @_ZNSaIcEC1Ev(ptr noundef nonnull align 1 dereferenceable(1) %ref.tmp.i) #32, !noalias !229
  invoke void @_ZNSt7__cxx1112basic_stringIcSt11char_traitsIcESaIcEEC1EPKcmRKS3_(ptr noundef nonnull align 8 dereferenceable(32) %ref.tmp, ptr noundef %agg.tmp.sroa.2.0.copyload, i64 noundef %agg.tmp.sroa.0.0.copyload, ptr noundef nonnull align 1 dereferenceable(1) %ref.tmp.i)
          to label %_ZN4pbrtL8toStringB5cxx11ESt17basic_string_viewIcSt11char_traitsIcEE.exit unwind label %lpad.i

common.resume:                                    ; preds = %lpad, %lpad.i
  %common.resume.op = phi { ptr, i32 } [ %0, %lpad.i ], [ %1, %lpad ]
  resume { ptr, i32 } %common.resume.op

lpad.i:                                           ; preds = %entry
  %0 = landingpad { ptr, i32 }
          cleanup
  call void @_ZNSaIcED1Ev(ptr noundef nonnull align 1 dereferenceable(1) %ref.tmp.i) #32
  br label %common.resume

_ZN4pbrtL8toStringB5cxx11ESt17basic_string_viewIcSt11char_traitsIcEE.exit: ; preds = %entry
  %loc = getelementptr inbounds i8, ptr %t, i64 16
  call void @_ZNSaIcED1Ev(ptr noundef nonnull align 1 dereferenceable(1) %ref.tmp.i) #32
  call void @llvm.lifetime.end.p0(i64 1, ptr nonnull %ref.tmp.i)
  invoke void @_ZN4pbrt9ErrorExitIJNSt7__cxx1112basic_stringIcSt11char_traitsIcESaIcEEEEEEvPKNS_7FileLocEPKcDpOT_(ptr noundef nonnull %loc, ptr noundef nonnull @.str.294, ptr noundef nonnull align 8 dereferenceable(32) %ref.tmp) #31
          to label %invoke.cont unwind label %lpad

invoke.cont:                                      ; preds = %_ZN4pbrtL8toStringB5cxx11ESt17basic_string_viewIcSt11char_traitsIcEE.exit
  unreachable

lpad:                                             ; preds = %_ZN4pbrtL8toStringB5cxx11ESt17basic_string_viewIcSt11char_traitsIcEE.exit
  %1 = landingpad { ptr, i32 }
          cleanup
  call void @_ZNSt7__cxx1112basic_stringIcSt11char_traitsIcESaIcEED1Ev(ptr noundef nonnull align 8 dereferenceable(32) %ref.tmp) #32
  br label %common.resume
}